; Function Attrs: nofree norecurse nosync nounwind memory(readwrite, inaccessiblemem: none) uwtable
define internal void @SDL_Blit_ARGB8888_ABGR8888_Scale(ptr noundef captures(none) %0) #0 {
  %2 = getelementptr inbounds nuw i8, ptr %0, i64 20
  %3 = load i32, ptr %2, align 4
  %4 = sext i32 %3 to i64
  %5 = shl nsw i64 %4, 16
  %6 = getelementptr inbounds nuw i8, ptr %0, i64 52
  %7 = load i32, ptr %6, align 4
  %8 = sext i32 %7 to i64
  %9 = udiv i64 %5, %8
  %10 = getelementptr inbounds nuw i8, ptr %0, i64 16
  %11 = load i32, ptr %10, align 8
  %12 = sext i32 %11 to i64
  %13 = shl nsw i64 %12, 16
  %14 = getelementptr inbounds nuw i8, ptr %0, i64 48
  %15 = load i32, ptr %14, align 8
  %16 = sext i32 %15 to i64
  %17 = udiv i64 %13, %16
  %18 = add nsw i32 %7, -1
  store i32 %18, ptr %6, align 4
  %.not41 = icmp eq i32 %7, 0
  br i1 %.not41, label %._crit_edge45, label %.lr.ph44

.lr.ph44:                                         ; preds = %1
  %19 = getelementptr inbounds nuw i8, ptr %0, i64 40
  %20 = lshr i64 %17, 1
  %21 = getelementptr inbounds nuw i8, ptr %0, i64 8
  %22 = getelementptr inbounds nuw i8, ptr %0, i64 24
  %23 = getelementptr inbounds nuw i8, ptr %0, i64 56
  %24 = icmp eq i32 %15, 0
  br i1 %24, label %.lr.ph44.split.us, label %.lr.ph44.split.preheader

.lr.ph44.split.preheader:                         ; preds = %.lr.ph44
  %25 = lshr i64 %9, 1
  %.pre = load ptr, ptr %19, align 8
  br label %.lr.ph44.split

.lr.ph44.split.us:                                ; preds = %.lr.ph44
  %26 = load i32, ptr %23, align 8
  %27 = sext i32 %26 to i64
  %.promoted = load ptr, ptr %19, align 8
  %28 = zext i32 %7 to i64
  %29 = mul nsw i64 %28, %27
  %scevgep = getelementptr i8, ptr %.promoted, i64 %29
  store ptr %scevgep, ptr %19, align 8
  store i32 -1, ptr %6, align 4
  br label %._crit_edge45

.lr.ph44.split:                                   ; preds = %.lr.ph44.split.preheader, %._crit_edge
  %30 = phi i32 [ %59, %._crit_edge ], [ %18, %.lr.ph44.split.preheader ]
  %31 = phi ptr [ %58, %._crit_edge ], [ %.pre, %.lr.ph44.split.preheader ]
  %.03442 = phi i64 [ %55, %._crit_edge ], [ %25, %.lr.ph44.split.preheader ]
  %32 = load i32, ptr %14, align 8
  %33 = lshr i64 %.03442, 16
  %.not3637 = icmp eq i32 %32, 0
  br i1 %.not3637, label %._crit_edge, label %.lr.ph

.lr.ph:                                           ; preds = %.lr.ph44.split, %.lr.ph
  %.040 = phi i32 [ %34, %.lr.ph ], [ %32, %.lr.ph44.split ]
  %.03339 = phi ptr [ %52, %.lr.ph ], [ %31, %.lr.ph44.split ]
  %.03538 = phi i64 [ %51, %.lr.ph ], [ %20, %.lr.ph44.split ]
  %34 = add nsw i32 %.040, -1
  %35 = load ptr, ptr %21, align 8
  %36 = load i32, ptr %22, align 8
  %37 = sext i32 %36 to i64
  %38 = mul i64 %33, %37
  %39 = getelementptr inbounds nuw i8, ptr %35, i64 %38
  %40 = lshr i64 %.03538, 14
  %41 = and i64 %40, 1125899906842620
  %42 = getelementptr inbounds nuw i8, ptr %39, i64 %41
  %43 = load i32, ptr %42, align 4
  %44 = lshr i32 %43, 16
  %45 = and i32 %44, 255
  %46 = shl i32 %43, 16
  %47 = and i32 %46, 16711680
  %48 = and i32 %43, -16711936
  %49 = or disjoint i32 %47, %48
  %50 = or disjoint i32 %49, %45
  store i32 %50, ptr %.03339, align 4
  %51 = add i64 %.03538, %17
  %52 = getelementptr inbounds nuw i8, ptr %.03339, i64 4
  %.not36 = icmp eq i32 %34, 0
  br i1 %.not36, label %._crit_edge.loopexit, label %.lr.ph, !llvm.loop !159

._crit_edge.loopexit:                             ; preds = %.lr.ph
  %.pre49 = load ptr, ptr %19, align 8
  %.pre50 = load i32, ptr %6, align 4
  br label %._crit_edge

._crit_edge:                                      ; preds = %._crit_edge.loopexit, %.lr.ph44.split
  %53 = phi i32 [ %.pre50, %._crit_edge.loopexit ], [ %30, %.lr.ph44.split ]
  %54 = phi ptr [ %.pre49, %._crit_edge.loopexit ], [ %31, %.lr.ph44.split ]
  %55 = add i64 %.03442, %9
  %56 = load i32, ptr %23, align 8
  %57 = sext i32 %56 to i64
  %58 = getelementptr inbounds i8, ptr %54, i64 %57
  store ptr %58, ptr %19, align 8
  %59 = add nsw i32 %53, -1
  store i32 %59, ptr %6, align 4
  %.not = icmp eq i32 %53, 0
  br i1 %.not, label %._crit_edge45, label %.lr.ph44.split, !llvm.loop !160

._crit_edge45:                                    ; preds = %._crit_edge, %.lr.ph44.split.us, %1
  ret void
}